target datalayout = "e-m:e-p270:32:32-p271:32:32-p272:64:64-i64:64-i128:128-f80:128-n8:16:32:64-S128"
target triple = "x86_64-unknown-linux-gnu"

%"class.QuantLib::FdmBatesOp::IntegroIntegrand" = type { double, double, double, ptr, ptr }

; Function Attrs: mustprogress nounwind uwtable
define void @_ZN8QuantLib10FdmBatesOp16IntegroIntegrandC2ERKN5boost10shared_ptrINS_19LinearInterpolationEEERKSt6vectorINS3_INS_17BoundaryConditionINS_11FdmLinearOpEEEEESaISC_EEddd(ptr noundef nonnull align 8 dereferenceable(40) %this, ptr noundef nonnull align 8 dereferenceable(16) %interpl, ptr noundef nonnull align 8 dereferenceable(24) %bcSet, double noundef %x, double noundef %delta, double noundef %nu) unnamed_addr #1 align 2 {
entry:
  %this.addr = alloca ptr, align 8
  %interpl.addr = alloca ptr, align 8
  %bcSet.addr = alloca ptr, align 8
  %x.addr = alloca double, align 8
  %delta.addr = alloca double, align 8
  %nu.addr = alloca double, align 8
  store ptr %this, ptr %this.addr, align 8, !tbaa !3
  store ptr %interpl, ptr %interpl.addr, align 8, !tbaa !3
  store ptr %bcSet, ptr %bcSet.addr, align 8, !tbaa !3
  store double %x, ptr %x.addr, align 8, !tbaa !20
  store double %delta, ptr %delta.addr, align 8, !tbaa !20
  store double %nu, ptr %nu.addr, align 8, !tbaa !20
  %this1 = load ptr, ptr %this.addr, align 8
  %x_ = getelementptr inbounds nuw %"class.QuantLib::FdmBatesOp::IntegroIntegrand", ptr %this1, i32 0, i32 0
  %0 = load double, ptr %x.addr, align 8, !tbaa !20
  store double %0, ptr %x_, align 8, !tbaa !95
  %delta_ = getelementptr inbounds nuw %"class.QuantLib::FdmBatesOp::IntegroIntegrand", ptr %this1, i32 0, i32 1
  %1 = load double, ptr %delta.addr, align 8, !tbaa !20
  store double %1, ptr %delta_, align 8, !tbaa !97
  %nu_ = getelementptr inbounds nuw %"class.QuantLib::FdmBatesOp::IntegroIntegrand", ptr %this1, i32 0, i32 2
  %2 = load double, ptr %nu.addr, align 8, !tbaa !20
  store double %2, ptr %nu_, align 8, !tbaa !98
  %bcSet_ = getelementptr inbounds nuw %"class.QuantLib::FdmBatesOp::IntegroIntegrand", ptr %this1, i32 0, i32 3
  %3 = load ptr, ptr %bcSet.addr, align 8, !tbaa !3
  store ptr %3, ptr %bcSet_, align 8, !tbaa !3
  %interpl_ = getelementptr inbounds nuw %"class.QuantLib::FdmBatesOp::IntegroIntegrand", ptr %this1, i32 0, i32 4
  %4 = load ptr, ptr %interpl.addr, align 8, !tbaa !3
  store ptr %4, ptr %interpl_, align 8, !tbaa !3
  ret void
}