; Function Attrs: mustprogress nofree norecurse nosync nounwind willreturn memory(argmem: write) uwtable
define void @_ZN8QuantLib10FdmBatesOp16IntegroIntegrandC2ERKN5boost10shared_ptrINS_19LinearInterpolationEEERKSt6vectorINS3_INS_17BoundaryConditionINS_11FdmLinearOpEEEEESaISC_EEddd(ptr nocapture noundef nonnull writeonly align 8 dereferenceable(40) %this, ptr noundef nonnull align 8 dereferenceable(16) %interpl, ptr noundef nonnull align 8 dereferenceable(24) %bcSet, double noundef %x, double noundef %delta, double noundef %nu) unnamed_addr #17 align 2 {
entry:
  store double %x, ptr %this, align 8, !tbaa !133
  %delta_ = getelementptr inbounds nuw i8, ptr %this, i64 8
  store double %delta, ptr %delta_, align 8, !tbaa !135
  %nu_ = getelementptr inbounds nuw i8, ptr %this, i64 16
  store double %nu, ptr %nu_, align 8, !tbaa !136
  %bcSet_ = getelementptr inbounds nuw i8, ptr %this, i64 24
  store ptr %bcSet, ptr %bcSet_, align 8, !tbaa !3
  %interpl_ = getelementptr inbounds nuw i8, ptr %this, i64 32
  store ptr %interpl, ptr %interpl_, align 8, !tbaa !3
  ret void
}